target datalayout = "e-m:e-p270:32:32-p271:32:32-p272:64:64-i64:64-i128:128-f80:128-n8:16:32:64-S128"
target triple = "x86_64-pc-linux-gnu"

%struct.AVFilterContext = type { ptr, ptr, ptr, ptr, ptr, i32, ptr, ptr, i32, ptr, ptr, i32, i32, ptr, ptr, ptr, ptr, i32, ptr, i32, i32 }
%struct.TileContext = type { ptr, i32, i32, i32, i32, i32, i32, i32, i32, %struct.FFDrawContext, %struct.FFDrawColor, ptr, ptr, [4 x i8] }
%struct.FFDrawContext = type { ptr, i32, i32, [4 x i32], [4 x i8], [4 x i8], i8, i8, i32, i32, i32, [3 x [3 x double]] }
%struct.FFDrawColor = type { [4 x i8], [4 x %union.anon.2] }
%union.anon.2 = type { [4 x i32] }
%struct.AVFilterLink = type { ptr, ptr, ptr, ptr, i32, i32, i32, i32, %struct.AVRational, i32, i32, i32, %struct.AVChannelLayout, %struct.AVRational, ptr, i32, %struct.AVFilterFormatsConfig, %struct.AVFilterFormatsConfig }
%struct.AVChannelLayout = type { i32, i32, %union.anon.1, ptr }
%union.anon.1 = type { i64 }
%struct.AVRational = type { i32, i32 }
%struct.AVFilterFormatsConfig = type { ptr, ptr, ptr, ptr, ptr }
%struct.FilterLink = type { %struct.AVFilterLink, ptr, i64, i64, i32, i32, i64, i64, i64, i64, %struct.AVRational, ptr }

@.str.3 = private unnamed_addr constant [32 x i8] c"Total width %ux%u is too much.\0A\00", align 1
@.str.4 = private unnamed_addr constant [33 x i8] c"Total height %ux%u is too much.\0A\00", align 1
@.str.5 = private unnamed_addr constant [36 x i8] c"Failed to initialize FFDrawContext\0A\00", align 1

; Function Attrs: inlinehint nounwind uwtable
define internal i64 @av_make_q(i32 noundef %0, i32 noundef %1) #4 {
  %3 = alloca %struct.AVRational, align 4
  %4 = alloca i32, align 4
  %5 = alloca i32, align 4
  store i32 %0, ptr %4, align 4, !tbaa !62
  store i32 %1, ptr %5, align 4, !tbaa !62
  %6 = getelementptr inbounds nuw %struct.AVRational, ptr %3, i32 0, i32 0
  %7 = load i32, ptr %4, align 4, !tbaa !62
  store i32 %7, ptr %6, align 4, !tbaa !76
  %8 = getelementptr inbounds nuw %struct.AVRational, ptr %3, i32 0, i32 1
  %9 = load i32, ptr %5, align 4, !tbaa !62
  store i32 %9, ptr %8, align 4, !tbaa !77
  %10 = load i64, ptr %3, align 4
  ret i64 %10
}

; Function Attrs: inlinehint nounwind uwtable
define internal ptr @ff_filter_link(ptr noundef %0) #4 {
  %2 = alloca ptr, align 8
  store ptr %0, ptr %2, align 8, !tbaa !39
  %3 = load ptr, ptr %2, align 8, !tbaa !39
  ret ptr %3
}

; Function Attrs: nounwind uwtable
define internal i32 @config_props(ptr noundef %0) #1 {
  %2 = alloca i32, align 4
  %3 = alloca ptr, align 8
  %4 = alloca ptr, align 8
  %5 = alloca ptr, align 8
  %6 = alloca ptr, align 8
  %7 = alloca ptr, align 8
  %8 = alloca ptr, align 8
  %9 = alloca i32, align 4
  %10 = alloca i32, align 4
  %11 = alloca i32, align 4
  %12 = alloca i32, align 4
  %13 = alloca %struct.AVRational, align 4
  %14 = alloca %struct.AVRational, align 4
  store ptr %0, ptr %3, align 8, !tbaa !39
  call void @llvm.lifetime.start.p0(i64 8, ptr %4) #7
  %15 = load ptr, ptr %3, align 8, !tbaa !39
  %16 = getelementptr inbounds nuw %struct.AVFilterLink, ptr %15, i32 0, i32 0
  %17 = load ptr, ptr %16, align 8, !tbaa !69
  store ptr %17, ptr %4, align 8, !tbaa !4
  call void @llvm.lifetime.start.p0(i64 8, ptr %5) #7
  %18 = load ptr, ptr %4, align 8, !tbaa !4
  %19 = getelementptr inbounds nuw %struct.AVFilterContext, ptr %18, i32 0, i32 9
  %20 = load ptr, ptr %19, align 8, !tbaa !9
  store ptr %20, ptr %5, align 8, !tbaa !22
  call void @llvm.lifetime.start.p0(i64 8, ptr %6) #7
  %21 = load ptr, ptr %4, align 8, !tbaa !4
  %22 = getelementptr inbounds nuw %struct.AVFilterContext, ptr %21, i32 0, i32 4
  %23 = load ptr, ptr %22, align 8, !tbaa !67
  %24 = getelementptr inbounds ptr, ptr %23, i64 0
  %25 = load ptr, ptr %24, align 8, !tbaa !39
  store ptr %25, ptr %6, align 8, !tbaa !39
  call void @llvm.lifetime.start.p0(i64 8, ptr %7) #7
  %26 = load ptr, ptr %6, align 8, !tbaa !39
  %27 = call ptr @ff_filter_link(ptr noundef %26)
  store ptr %27, ptr %7, align 8, !tbaa !70
  call void @llvm.lifetime.start.p0(i64 8, ptr %8) #7
  %28 = load ptr, ptr %3, align 8, !tbaa !39
  %29 = call ptr @ff_filter_link(ptr noundef %28)
  store ptr %29, ptr %8, align 8, !tbaa !70
  call void @llvm.lifetime.start.p0(i64 4, ptr %9) #7
  %30 = load ptr, ptr %5, align 8, !tbaa !22
  %31 = getelementptr inbounds nuw %struct.TileContext, ptr %30, i32 0, i32 1
  %32 = load i32, ptr %31, align 8, !tbaa !24
  %33 = sub i32 %32, 1
  %34 = load ptr, ptr %5, align 8, !tbaa !22
  %35 = getelementptr inbounds nuw %struct.TileContext, ptr %34, i32 0, i32 4
  %36 = load i32, ptr %35, align 4, !tbaa !31
  %37 = mul i32 %33, %36
  %38 = load ptr, ptr %5, align 8, !tbaa !22
  %39 = getelementptr inbounds nuw %struct.TileContext, ptr %38, i32 0, i32 3
  %40 = load i32, ptr %39, align 8, !tbaa !32
  %41 = mul i32 2, %40
  %42 = add i32 %37, %41
  store i32 %42, ptr %9, align 4, !tbaa !62
  call void @llvm.lifetime.start.p0(i64 4, ptr %10) #7
  %43 = load ptr, ptr %5, align 8, !tbaa !22
  %44 = getelementptr inbounds nuw %struct.TileContext, ptr %43, i32 0, i32 2
  %45 = load i32, ptr %44, align 4, !tbaa !30
  %46 = sub i32 %45, 1
  %47 = load ptr, ptr %5, align 8, !tbaa !22
  %48 = getelementptr inbounds nuw %struct.TileContext, ptr %47, i32 0, i32 4
  %49 = load i32, ptr %48, align 4, !tbaa !31
  %50 = mul i32 %46, %49
  %51 = load ptr, ptr %5, align 8, !tbaa !22
  %52 = getelementptr inbounds nuw %struct.TileContext, ptr %51, i32 0, i32 3
  %53 = load i32, ptr %52, align 8, !tbaa !32
  %54 = mul i32 2, %53
  %55 = add i32 %50, %54
  store i32 %55, ptr %10, align 4, !tbaa !62
  call void @llvm.lifetime.start.p0(i64 4, ptr %11) #7
  %56 = load ptr, ptr %6, align 8, !tbaa !39
  %57 = getelementptr inbounds nuw %struct.AVFilterLink, ptr %56, i32 0, i32 6
  %58 = load i32, ptr %57, align 8, !tbaa !52
  %59 = load i32, ptr %9, align 4, !tbaa !62
  %60 = sub i32 2147483647, %59
  %61 = load ptr, ptr %5, align 8, !tbaa !22
  %62 = getelementptr inbounds nuw %struct.TileContext, ptr %61, i32 0, i32 1
  %63 = load i32, ptr %62, align 8, !tbaa !24
  %64 = udiv i32 %60, %63
  %65 = icmp ugt i32 %58, %64
  br i1 %65, label %66, label %74

66:                                               ; preds = %1
  %67 = load ptr, ptr %4, align 8, !tbaa !4
  %68 = load ptr, ptr %5, align 8, !tbaa !22
  %69 = getelementptr inbounds nuw %struct.TileContext, ptr %68, i32 0, i32 1
  %70 = load i32, ptr %69, align 8, !tbaa !24
  %71 = load ptr, ptr %6, align 8, !tbaa !39
  %72 = getelementptr inbounds nuw %struct.AVFilterLink, ptr %71, i32 0, i32 6
  %73 = load i32, ptr %72, align 8, !tbaa !52
  call void (ptr, i32, ptr, ...) @av_log(ptr noundef %67, i32 noundef 16, ptr noundef @.str.3, i32 noundef %70, i32 noundef %73)
  store i32 -22, ptr %2, align 4
  store i32 1, ptr %12, align 4
  br label %160

74:                                               ; preds = %1
  %75 = load ptr, ptr %6, align 8, !tbaa !39
  %76 = getelementptr inbounds nuw %struct.AVFilterLink, ptr %75, i32 0, i32 7
  %77 = load i32, ptr %76, align 4, !tbaa !53
  %78 = load i32, ptr %10, align 4, !tbaa !62
  %79 = sub i32 2147483647, %78
  %80 = load ptr, ptr %5, align 8, !tbaa !22
  %81 = getelementptr inbounds nuw %struct.TileContext, ptr %80, i32 0, i32 2
  %82 = load i32, ptr %81, align 4, !tbaa !30
  %83 = udiv i32 %79, %82
  %84 = icmp ugt i32 %77, %83
  br i1 %84, label %85, label %93

85:                                               ; preds = %74
  %86 = load ptr, ptr %4, align 8, !tbaa !4
  %87 = load ptr, ptr %5, align 8, !tbaa !22
  %88 = getelementptr inbounds nuw %struct.TileContext, ptr %87, i32 0, i32 2
  %89 = load i32, ptr %88, align 4, !tbaa !30
  %90 = load ptr, ptr %6, align 8, !tbaa !39
  %91 = getelementptr inbounds nuw %struct.AVFilterLink, ptr %90, i32 0, i32 7
  %92 = load i32, ptr %91, align 4, !tbaa !53
  call void (ptr, i32, ptr, ...) @av_log(ptr noundef %86, i32 noundef 16, ptr noundef @.str.4, i32 noundef %89, i32 noundef %92)
  store i32 -22, ptr %2, align 4
  store i32 1, ptr %12, align 4
  br label %160

93:                                               ; preds = %74
  %94 = load ptr, ptr %5, align 8, !tbaa !22
  %95 = getelementptr inbounds nuw %struct.TileContext, ptr %94, i32 0, i32 1
  %96 = load i32, ptr %95, align 8, !tbaa !24
  %97 = load ptr, ptr %6, align 8, !tbaa !39
  %98 = getelementptr inbounds nuw %struct.AVFilterLink, ptr %97, i32 0, i32 6
  %99 = load i32, ptr %98, align 8, !tbaa !52
  %100 = mul i32 %96, %99
  %101 = load i32, ptr %9, align 4, !tbaa !62
  %102 = add i32 %100, %101
  %103 = load ptr, ptr %3, align 8, !tbaa !39
  %104 = getelementptr inbounds nuw %struct.AVFilterLink, ptr %103, i32 0, i32 6
  store i32 %102, ptr %104, align 8, !tbaa !52
  %105 = load ptr, ptr %5, align 8, !tbaa !22
  %106 = getelementptr inbounds nuw %struct.TileContext, ptr %105, i32 0, i32 2
  %107 = load i32, ptr %106, align 4, !tbaa !30
  %108 = load ptr, ptr %6, align 8, !tbaa !39
  %109 = getelementptr inbounds nuw %struct.AVFilterLink, ptr %108, i32 0, i32 7
  %110 = load i32, ptr %109, align 4, !tbaa !53
  %111 = mul i32 %107, %110
  %112 = load i32, ptr %10, align 4, !tbaa !62
  %113 = add i32 %111, %112
  %114 = load ptr, ptr %3, align 8, !tbaa !39
  %115 = getelementptr inbounds nuw %struct.AVFilterLink, ptr %114, i32 0, i32 7
  store i32 %113, ptr %115, align 4, !tbaa !53
  %116 = load ptr, ptr %3, align 8, !tbaa !39
  %117 = getelementptr inbounds nuw %struct.AVFilterLink, ptr %116, i32 0, i32 8
  %118 = load ptr, ptr %6, align 8, !tbaa !39
  %119 = getelementptr inbounds nuw %struct.AVFilterLink, ptr %118, i32 0, i32 8
  call void @llvm.memcpy.p0.p0.i64(ptr align 8 %117, ptr align 8 %119, i64 8, i1 false), !tbaa.struct !72
  %120 = load ptr, ptr %8, align 8, !tbaa !70
  %121 = getelementptr inbounds nuw %struct.FilterLink, ptr %120, i32 0, i32 10
  call void @llvm.lifetime.start.p0(i64 8, ptr %13) #7
  %122 = load ptr, ptr %7, align 8, !tbaa !70
  %123 = getelementptr inbounds nuw %struct.FilterLink, ptr %122, i32 0, i32 10
  %124 = load ptr, ptr %5, align 8, !tbaa !22
  %125 = getelementptr inbounds nuw %struct.TileContext, ptr %124, i32 0, i32 8
  %126 = load i32, ptr %125, align 4, !tbaa !33
  %127 = load ptr, ptr %5, align 8, !tbaa !22
  %128 = getelementptr inbounds nuw %struct.TileContext, ptr %127, i32 0, i32 5
  %129 = load i32, ptr %128, align 8, !tbaa !34
  %130 = sub i32 %126, %129
  %131 = call i64 @av_make_q(i32 noundef 1, i32 noundef %130)
  store i64 %131, ptr %14, align 4
  %132 = load i64, ptr %123, align 8
  %133 = load i64, ptr %14, align 4
  %134 = call i64 @av_mul_q(i64 %132, i64 %133) #8
  store i64 %134, ptr %13, align 4
  call void @llvm.memcpy.p0.p0.i64(ptr align 8 %121, ptr align 4 %13, i64 8, i1 false), !tbaa.struct !72
  call void @llvm.lifetime.end.p0(i64 8, ptr %13) #7
  %135 = load ptr, ptr %5, align 8, !tbaa !22
  %136 = getelementptr inbounds nuw %struct.TileContext, ptr %135, i32 0, i32 9
  %137 = load ptr, ptr %6, align 8, !tbaa !39
  %138 = getelementptr inbounds nuw %struct.AVFilterLink, ptr %137, i32 0, i32 5
  %139 = load i32, ptr %138, align 4, !tbaa !73
  %140 = load ptr, ptr %6, align 8, !tbaa !39
  %141 = getelementptr inbounds nuw %struct.AVFilterLink, ptr %140, i32 0, i32 9
  %142 = load i32, ptr %141, align 8, !tbaa !74
  %143 = load ptr, ptr %6, align 8, !tbaa !39
  %144 = getelementptr inbounds nuw %struct.AVFilterLink, ptr %143, i32 0, i32 10
  %145 = load i32, ptr %144, align 4, !tbaa !75
  %146 = call i32 @ff_draw_init2(ptr noundef %136, i32 noundef %139, i32 noundef %142, i32 noundef %145, i32 noundef 0)
  store i32 %146, ptr %11, align 4, !tbaa !62
  %147 = load i32, ptr %11, align 4, !tbaa !62
  %148 = icmp slt i32 %147, 0
  br i1 %148, label %149, label %152

149:                                              ; preds = %93
  %150 = load ptr, ptr %4, align 8, !tbaa !4
  call void (ptr, i32, ptr, ...) @av_log(ptr noundef %150, i32 noundef 16, ptr noundef @.str.5)
  %151 = load i32, ptr %11, align 4, !tbaa !62
  store i32 %151, ptr %2, align 4
  store i32 1, ptr %12, align 4
  br label %160

152:                                              ; preds = %93
  %153 = load ptr, ptr %5, align 8, !tbaa !22
  %154 = getelementptr inbounds nuw %struct.TileContext, ptr %153, i32 0, i32 9
  %155 = load ptr, ptr %5, align 8, !tbaa !22
  %156 = getelementptr inbounds nuw %struct.TileContext, ptr %155, i32 0, i32 10
  %157 = load ptr, ptr %5, align 8, !tbaa !22
  %158 = getelementptr inbounds nuw %struct.TileContext, ptr %157, i32 0, i32 13
  %159 = getelementptr inbounds [4 x i8], ptr %158, i64 0, i64 0
  call void @ff_draw_color(ptr noundef %154, ptr noundef %156, ptr noundef %159)
  store i32 0, ptr %2, align 4
  store i32 1, ptr %12, align 4
  br label %160

160:                                              ; preds = %152, %149, %85, %66
  call void @llvm.lifetime.end.p0(i64 4, ptr %11) #7
  call void @llvm.lifetime.end.p0(i64 4, ptr %10) #7
  call void @llvm.lifetime.end.p0(i64 4, ptr %9) #7
  call void @llvm.lifetime.end.p0(i64 8, ptr %8) #7
  call void @llvm.lifetime.end.p0(i64 8, ptr %7) #7
  call void @llvm.lifetime.end.p0(i64 8, ptr %6) #7
  call void @llvm.lifetime.end.p0(i64 8, ptr %5) #7
  call void @llvm.lifetime.end.p0(i64 8, ptr %4) #7
  %161 = load i32, ptr %2, align 4
  ret i32 %161
}