; Function Attrs: nounwind uwtable
define internal range(i32 -2147483648, 1) i32 @config_props(ptr noundef captures(none) %0) #1 {
  %2 = load ptr, ptr %0, align 8, !tbaa !61
  %3 = getelementptr inbounds nuw i8, ptr %2, i64 72
  %4 = load ptr, ptr %3, align 8, !tbaa !4
  %5 = getelementptr inbounds nuw i8, ptr %2, i64 32
  %6 = load ptr, ptr %5, align 8, !tbaa !57
  %7 = load ptr, ptr %6, align 8, !tbaa !45
  %8 = getelementptr inbounds nuw i8, ptr %4, i64 8
  %9 = load i32, ptr %8, align 8, !tbaa !20
  %10 = add i32 %9, -1
  %11 = getelementptr inbounds nuw i8, ptr %4, i64 20
  %12 = load i32, ptr %11, align 4, !tbaa !27
  %13 = mul i32 %10, %12
  %14 = getelementptr inbounds nuw i8, ptr %4, i64 16
  %15 = load i32, ptr %14, align 8, !tbaa !28
  %16 = shl i32 %15, 1
  %17 = add i32 %16, %13
  %18 = getelementptr inbounds nuw i8, ptr %4, i64 12
  %19 = load i32, ptr %18, align 4, !tbaa !26
  %20 = add i32 %19, -1
  %21 = mul i32 %20, %12
  %22 = add i32 %21, %16
  %23 = getelementptr inbounds nuw i8, ptr %7, i64 40
  %24 = load i32, ptr %23, align 8, !tbaa !47
  %25 = sub i32 2147483647, %17
  %26 = udiv i32 %25, %9
  %27 = icmp ugt i32 %24, %26
  br i1 %27, label %28, label %29

28:                                               ; preds = %1
  tail call void (ptr, i32, ptr, ...) @av_log(ptr noundef nonnull %2, i32 noundef 16, ptr noundef nonnull @.str.3, i32 noundef %9, i32 noundef %24) #5
  br label %68

29:                                               ; preds = %1
  %30 = getelementptr inbounds nuw i8, ptr %7, i64 44
  %31 = load i32, ptr %30, align 4, !tbaa !48
  %32 = sub i32 2147483647, %22
  %33 = udiv i32 %32, %19
  %34 = icmp ugt i32 %31, %33
  br i1 %34, label %35, label %36

35:                                               ; preds = %29
  tail call void (ptr, i32, ptr, ...) @av_log(ptr noundef nonnull %2, i32 noundef 16, ptr noundef nonnull @.str.4, i32 noundef %19, i32 noundef %31) #5
  br label %68

36:                                               ; preds = %29
  %37 = mul i32 %24, %9
  %38 = add i32 %37, %17
  %39 = getelementptr inbounds nuw i8, ptr %0, i64 40
  store i32 %38, ptr %39, align 8, !tbaa !47
  %40 = mul i32 %31, %19
  %41 = add i32 %40, %22
  %42 = getelementptr inbounds nuw i8, ptr %0, i64 44
  store i32 %41, ptr %42, align 4, !tbaa !48
  %43 = getelementptr inbounds nuw i8, ptr %0, i64 48
  %44 = getelementptr inbounds nuw i8, ptr %7, i64 48
  %45 = load i64, ptr %44, align 8
  store i64 %45, ptr %43, align 8
  %46 = getelementptr inbounds nuw i8, ptr %0, i64 264
  %47 = getelementptr inbounds nuw i8, ptr %7, i64 264
  %48 = getelementptr inbounds nuw i8, ptr %4, i64 36
  %49 = load i32, ptr %48, align 4, !tbaa !29
  %50 = getelementptr inbounds nuw i8, ptr %4, i64 24
  %51 = load i32, ptr %50, align 8, !tbaa !30
  %52 = sub i32 %49, %51
  %.sroa.2.0.insert.ext.i = zext i32 %52 to i64
  %.sroa.2.0.insert.shift.i = shl nuw i64 %.sroa.2.0.insert.ext.i, 32
  %.sroa.0.0.insert.insert.i = or disjoint i64 %.sroa.2.0.insert.shift.i, 1
  %53 = load i64, ptr %47, align 8
  %54 = tail call i64 @av_mul_q(i64 %53, i64 %.sroa.0.0.insert.insert.i) #6
  store i64 %54, ptr %46, align 8
  %55 = getelementptr inbounds nuw i8, ptr %4, i64 40
  %56 = getelementptr inbounds nuw i8, ptr %7, i64 36
  %57 = load i32, ptr %56, align 4, !tbaa !62
  %58 = getelementptr inbounds nuw i8, ptr %7, i64 56
  %59 = load i32, ptr %58, align 8, !tbaa !63
  %60 = getelementptr inbounds nuw i8, ptr %7, i64 60
  %61 = load i32, ptr %60, align 4, !tbaa !64
  %62 = tail call i32 @ff_draw_init2(ptr noundef nonnull %55, i32 noundef %57, i32 noundef %59, i32 noundef %61, i32 noundef 0) #5
  %63 = icmp slt i32 %62, 0
  br i1 %63, label %64, label %65

64:                                               ; preds = %36
  tail call void (ptr, i32, ptr, ...) @av_log(ptr noundef nonnull %2, i32 noundef 16, ptr noundef nonnull @.str.5) #5
  br label %68

65:                                               ; preds = %36
  %66 = getelementptr inbounds nuw i8, ptr %4, i64 168
  %67 = getelementptr inbounds nuw i8, ptr %4, i64 256
  tail call void @ff_draw_color(ptr noundef nonnull %55, ptr noundef nonnull %66, ptr noundef nonnull %67) #5
  br label %68

68:                                               ; preds = %65, %64, %35, %28
  %.0 = phi i32 [ -22, %28 ], [ -22, %35 ], [ %62, %64 ], [ 0, %65 ]
  ret i32 %.0
}